target datalayout = "e-m:e-p270:32:32-p271:32:32-p272:64:64-i64:64-i128:128-f80:128-n8:16:32:64-S128"
target triple = "x86_64-pc-linux-gnu"

@PyExc_OverflowError = external global ptr, align 8
@.str.22 = private unnamed_addr constant [35 x i8] c"Value too large for lzma_mode type\00", align 1

; Function Attrs: nounwind uwtable
define internal i32 @lzma_mode_converter(ptr noundef %0, ptr noundef %1) #0 {
  %3 = alloca i32, align 4
  %4 = alloca ptr, align 8
  %5 = alloca ptr, align 8
  %6 = alloca i64, align 8
  %7 = alloca i32, align 4
  store ptr %0, ptr %4, align 8, !tbaa !3
  store ptr %1, ptr %5, align 8, !tbaa !8
  call void @llvm.lifetime.start.p0(i64 8, ptr %6) #9
  %8 = load ptr, ptr %4, align 8, !tbaa !3
  %9 = call i64 @PyLong_AsUnsignedLongLong(ptr noundef %8)
  store i64 %9, ptr %6, align 8, !tbaa !37
  %10 = call ptr @PyErr_Occurred()
  %11 = icmp ne ptr %10, null
  br i1 %11, label %12, label %13

12:                                               ; preds = %2
  store i32 0, ptr %3, align 4
  store i32 1, ptr %7, align 4
  br label %25

13:                                               ; preds = %2
  %14 = load i64, ptr %6, align 8, !tbaa !37
  %15 = trunc i64 %14 to i32
  %16 = zext i32 %15 to i64
  %17 = load i64, ptr %6, align 8, !tbaa !37
  %18 = icmp ne i64 %16, %17
  br i1 %18, label %19, label %21

19:                                               ; preds = %13
  %20 = load ptr, ptr @PyExc_OverflowError, align 8, !tbaa !3
  call void @PyErr_SetString(ptr noundef %20, ptr noundef @.str.22)
  store i32 0, ptr %3, align 4
  store i32 1, ptr %7, align 4
  br label %25

21:                                               ; preds = %13
  %22 = load i64, ptr %6, align 8, !tbaa !37
  %23 = trunc i64 %22 to i32
  %24 = load ptr, ptr %5, align 8, !tbaa !8
  store i32 %23, ptr %24, align 4, !tbaa !12
  store i32 1, ptr %3, align 4
  store i32 1, ptr %7, align 4
  br label %25

25:                                               ; preds = %21, %19, %12
  call void @llvm.lifetime.end.p0(i64 8, ptr %6) #9
  %26 = load i32, ptr %3, align 4
  ret i32 %26
}